; Function Attrs: nounwind uwtable
define dso_local void @trace2_printf_fl(ptr noundef %0, i32 noundef %1, ptr noundef %2, ...) local_unnamed_addr #0 {
  %4 = alloca [1 x %struct.__va_list_tag], align 16
  call void @llvm.lifetime.start.p0(i64 24, ptr nonnull %4) #11
  call void @llvm.va_start.p0(ptr nonnull %4)
  %.b.i = load i1, ptr @trace2_enabled, align 4
  br i1 %.b.i, label %5, label %trace2_printf_va_fl.exit

5:                                                ; preds = %3
  %6 = call i64 @getnanotime() #11
  %7 = udiv i64 %6, 1000
  %8 = call i64 @tr2tls_absolute_elapsed(i64 noundef %7) #11
  br label %9

9:                                                ; preds = %16, %5
  %indvars.iv.i = phi i64 [ 0, %5 ], [ %indvars.iv.next.i, %16 ]
  %.017.i = phi ptr [ @tr2_tgt_normal, %5 ], [ %18, %16 ]
  %10 = load ptr, ptr %.017.i, align 8, !tbaa !14
  %11 = call i32 @tr2_dst_trace_want(ptr noundef %10) #11
  %.not14.i = icmp eq i32 %11, 0
  br i1 %.not14.i, label %16, label %12

12:                                               ; preds = %9
  %13 = getelementptr inbounds nuw i8, ptr %.017.i, i64 216
  %14 = load ptr, ptr %13, align 8, !tbaa !108
  %.not15.i = icmp eq ptr %14, null
  br i1 %.not15.i, label %16, label %15

15:                                               ; preds = %12
  call void %14(ptr noundef %0, i32 noundef %1, i64 noundef %8, ptr noundef %2, ptr noundef nonnull %4) #11
  br label %16

16:                                               ; preds = %15, %12, %9
  %indvars.iv.next.i = add nuw nsw i64 %indvars.iv.i, 1
  %17 = getelementptr inbounds nuw [4 x ptr], ptr @tr2_tgt_builtins, i64 0, i64 %indvars.iv.next.i
  %18 = load ptr, ptr %17, align 8, !tbaa !10
  %.not.i = icmp eq i64 %indvars.iv.next.i, 3
  br i1 %.not.i, label %trace2_printf_va_fl.exit, label %9, !llvm.loop !109

trace2_printf_va_fl.exit:                         ; preds = %16, %3
  call void @llvm.va_end.p0(ptr nonnull %4)
  call void @llvm.lifetime.end.p0(i64 24, ptr nonnull %4) #11
  ret void
}